target datalayout = "e-m:e-p270:32:32-p271:32:32-p272:64:64-i64:64-i128:128-f80:128-n8:16:32:64-S128"
target triple = "x86_64-pc-linux-gnu"

%"class.std::shared_ptr" = type { %"class.std::__shared_ptr" }
%"class.std::__shared_ptr" = type { ptr, %"class.std::__shared_count" }
%"class.std::__shared_count" = type { ptr }
%"class.pxrInternal_v0_24__pxrReserved__::SdfPath" = type { %"struct.pxrInternal_v0_24__pxrReserved__::Sdf_PathNodeHandleImpl", %"struct.pxrInternal_v0_24__pxrReserved__::Sdf_PathNodeHandleImpl.55" }
%"struct.pxrInternal_v0_24__pxrReserved__::Sdf_PathNodeHandleImpl" = type { %"struct.pxrInternal_v0_24__pxrReserved__::Sdf_Pool<pxrInternal_v0_24__pxrReserved__::Sdf_PathPrimTag, 24, 8>::Handle" }
%"struct.pxrInternal_v0_24__pxrReserved__::Sdf_Pool<pxrInternal_v0_24__pxrReserved__::Sdf_PathPrimTag, 24, 8>::Handle" = type { i32 }
%"struct.pxrInternal_v0_24__pxrReserved__::Sdf_PathNodeHandleImpl.55" = type { %"struct.pxrInternal_v0_24__pxrReserved__::Sdf_Pool<pxrInternal_v0_24__pxrReserved__::Sdf_PathPropTag, 24, 8>::Handle" }
%"struct.pxrInternal_v0_24__pxrReserved__::Sdf_Pool<pxrInternal_v0_24__pxrReserved__::Sdf_PathPropTag, 24, 8>::Handle" = type { i32 }
%"class.pxrInternal_v0_24__pxrReserved__::UsdPrimCompositionQuery" = type { %"class.pxrInternal_v0_24__pxrReserved__::UsdPrim", %"struct.pxrInternal_v0_24__pxrReserved__::UsdPrimCompositionQuery::Filter", %"class.std::shared_ptr", %"class.std::vector.123" }
%"class.pxrInternal_v0_24__pxrReserved__::UsdPrim" = type { %"class.pxrInternal_v0_24__pxrReserved__::UsdObject" }
%"class.pxrInternal_v0_24__pxrReserved__::UsdObject" = type { i32, %"class.pxrInternal_v0_24__pxrReserved__::Usd_PrimDataHandle", %"class.pxrInternal_v0_24__pxrReserved__::SdfPath", %"class.pxrInternal_v0_24__pxrReserved__::TfToken" }
%"class.pxrInternal_v0_24__pxrReserved__::Usd_PrimDataHandle" = type { %"class.pxrInternal_v0_24__pxrReserved__::TfDelegatedCountPtr.121" }
%"class.pxrInternal_v0_24__pxrReserved__::TfDelegatedCountPtr.121" = type { ptr }
%"class.pxrInternal_v0_24__pxrReserved__::TfToken" = type { %"class.pxrInternal_v0_24__pxrReserved__::TfPointerAndBits.122" }
%"class.pxrInternal_v0_24__pxrReserved__::TfPointerAndBits.122" = type { ptr }
%"struct.pxrInternal_v0_24__pxrReserved__::UsdPrimCompositionQuery::Filter" = type { i32, i32, i32, i32 }
%"class.std::vector.123" = type { %"struct.std::_Vector_base.124" }
%"struct.std::_Vector_base.124" = type { %"struct.std::_Vector_base<pxrInternal_v0_24__pxrReserved__::UsdPrimCompositionQueryArc, std::allocator<pxrInternal_v0_24__pxrReserved__::UsdPrimCompositionQueryArc>>::_Vector_impl" }
%"struct.std::_Vector_base<pxrInternal_v0_24__pxrReserved__::UsdPrimCompositionQueryArc, std::allocator<pxrInternal_v0_24__pxrReserved__::UsdPrimCompositionQueryArc>>::_Vector_impl" = type { %"struct.std::_Vector_base<pxrInternal_v0_24__pxrReserved__::UsdPrimCompositionQueryArc, std::allocator<pxrInternal_v0_24__pxrReserved__::UsdPrimCompositionQueryArc>>::_Vector_impl_data" }
%"struct.std::_Vector_base<pxrInternal_v0_24__pxrReserved__::UsdPrimCompositionQueryArc, std::allocator<pxrInternal_v0_24__pxrReserved__::UsdPrimCompositionQueryArc>>::_Vector_impl_data" = type { ptr, ptr, ptr }

; Function Attrs: mustprogress nounwind uwtable
define { i64, i64 } @_ZNK32pxrInternal_v0_24__pxrReserved__23UsdPrimCompositionQuery9GetFilterEv(ptr noundef nonnull align 8 dereferenceable(88) %0) #2 align 2 {
  %2 = alloca %"struct.pxrInternal_v0_24__pxrReserved__::UsdPrimCompositionQuery::Filter", align 4
  %3 = alloca ptr, align 8
  store ptr %0, ptr %3, align 8
  %4 = load ptr, ptr %3, align 8
  %5 = getelementptr inbounds nuw %"class.pxrInternal_v0_24__pxrReserved__::UsdPrimCompositionQuery", ptr %4, i32 0, i32 1
  call void @llvm.memcpy.p0.p0.i64(ptr align 4 %2, ptr align 8 %5, i64 16, i1 false)
  %6 = load { i64, i64 }, ptr %2, align 4
  ret { i64, i64 } %6
}